; Function Attrs: mustprogress nounwind uwtable
define hidden void @_ZN4cvc58internal13preprocessing4util17ITECareSimplifierD2Ev(ptr noundef nonnull readonly align 8 captures(none) dereferenceable(48) %0) unnamed_addr #6 align 2 personality ptr @__gxx_personality_v0 {
  %2 = getelementptr inbounds nuw i8, ptr %0, i64 24
  %3 = load ptr, ptr %2, align 8, !tbaa !838
  %.not.i.i.i = icmp eq ptr %3, null
  br i1 %.not.i.i.i, label %_ZNSt6vectorIPN4cvc58internal13preprocessing4util17ITECareSimplifier13CareSetPtrValESaIS6_EED2Ev.exit, label %4

4:                                                ; preds = %1
  %5 = getelementptr inbounds nuw i8, ptr %0, i64 40
  %6 = load ptr, ptr %5, align 8, !tbaa !839
  %7 = ptrtoint ptr %6 to i64
  %8 = ptrtoint ptr %3 to i64
  %9 = sub i64 %7, %8
  tail call void @_ZdlPvm(ptr noundef nonnull %3, i64 noundef %9) #29
  br label %_ZNSt6vectorIPN4cvc58internal13preprocessing4util17ITECareSimplifier13CareSetPtrValESaIS6_EED2Ev.exit

_ZNSt6vectorIPN4cvc58internal13preprocessing4util17ITECareSimplifier13CareSetPtrValESaIS6_EED2Ev.exit: ; preds = %1, %4
  %10 = getelementptr inbounds nuw i8, ptr %0, i64 16
  %11 = load ptr, ptr %10, align 8, !tbaa !69
  %12 = load i64, ptr %11, align 8
  %13 = and i64 %12, 1152920405095219200
  %.not.i.i = icmp eq i64 %13, 1152920405095219200
  br i1 %.not.i.i, label %_ZN4cvc58internal12NodeTemplateILb1EED2Ev.exit, label %14, !prof !71

14:                                               ; preds = %_ZNSt6vectorIPN4cvc58internal13preprocessing4util17ITECareSimplifier13CareSetPtrValESaIS6_EED2Ev.exit
  %15 = add i64 %12, 1152920405095219200
  %16 = and i64 %15, 1152920405095219200
  %17 = and i64 %12, -1152920405095219201
  %18 = or disjoint i64 %16, %17
  store i64 %18, ptr %11, align 8
  %19 = icmp eq i64 %16, 0
  br i1 %19, label %20, label %_ZN4cvc58internal12NodeTemplateILb1EED2Ev.exit, !prof !71

20:                                               ; preds = %14
  invoke void @_ZN4cvc58internal4expr9NodeValue15markForDeletionEv(ptr noundef nonnull align 8 dereferenceable(24) %11)
          to label %_ZN4cvc58internal12NodeTemplateILb1EED2Ev.exit unwind label %21

21:                                               ; preds = %20
  %22 = landingpad { ptr, i32 }
          catch ptr null
  %23 = extractvalue { ptr, i32 } %22, 0
  tail call void @__clang_call_terminate(ptr %23) #30
  unreachable

_ZN4cvc58internal12NodeTemplateILb1EED2Ev.exit:   ; preds = %_ZNSt6vectorIPN4cvc58internal13preprocessing4util17ITECareSimplifier13CareSetPtrValESaIS6_EED2Ev.exit, %14, %20
  %24 = getelementptr inbounds nuw i8, ptr %0, i64 8
  %25 = load ptr, ptr %24, align 8, !tbaa !69
  %26 = load i64, ptr %25, align 8
  %27 = and i64 %26, 1152920405095219200
  %.not.i.i1 = icmp eq i64 %27, 1152920405095219200
  br i1 %.not.i.i1, label %_ZN4cvc58internal12NodeTemplateILb1EED2Ev.exit2, label %28, !prof !71

28:                                               ; preds = %_ZN4cvc58internal12NodeTemplateILb1EED2Ev.exit
  %29 = add i64 %26, 1152920405095219200
  %30 = and i64 %29, 1152920405095219200
  %31 = and i64 %26, -1152920405095219201
  %32 = or disjoint i64 %30, %31
  store i64 %32, ptr %25, align 8
  %33 = icmp eq i64 %30, 0
  br i1 %33, label %34, label %_ZN4cvc58internal12NodeTemplateILb1EED2Ev.exit2, !prof !71

34:                                               ; preds = %28
  invoke void @_ZN4cvc58internal4expr9NodeValue15markForDeletionEv(ptr noundef nonnull align 8 dereferenceable(24) %25)
          to label %_ZN4cvc58internal12NodeTemplateILb1EED2Ev.exit2 unwind label %35

35:                                               ; preds = %34
  %36 = landingpad { ptr, i32 }
          catch ptr null
  %37 = extractvalue { ptr, i32 } %36, 0
  tail call void @__clang_call_terminate(ptr %37) #30
  unreachable

_ZN4cvc58internal12NodeTemplateILb1EED2Ev.exit2:  ; preds = %_ZN4cvc58internal12NodeTemplateILb1EED2Ev.exit, %28, %34
  ret void
}